(lp0
ccopy_reg
_reconstructor
p1
(csympy.matrices.dense
MutableDenseMatrix
p2
c__builtin__
object
p3
Ntp4
Rp5
(dp6
S'rows'
p7
I4
sS'_mat'
p8
(lp9
csympy.core.mul
Mul
p10
(csympy.core.power
Pow
p11
(csympy.core.add
Add
p12
(g11
(csympy.core.symbol
Symbol
p13
(S'x0'
p14
tp15
Rp16
(dp17
S'_assumptions'
p18
g1
(csympy.core.assumptions
StdFactKB
p19
c__builtin__
dict
p20
(dp21
S'real'
p22
NsS'irrational'
p23
NsS'antihermitian'
p24
NsS'nonpositive'
p25
NsS'algebraic'
p26
NsS'zero'
p27
NsS'infinite'
p28
NsS'integer'
p29
NsS'hermitian'
p30
NsS'odd'
p31
NsS'imaginary'
p32
NsS'even'
p33
NsS'commutative'
p34
I01
sS'positive'
p35
NsS'negative'
p36
NsS'nonnegative'
p37
NsS'complex'
p38
NsS'rational'
p39
NsS'finite'
p40
Nstp41
Rp42
sbcsympy.core.numbers
Integer
p43
(I4
tp44
Rp45
(dp46
btp47
Rp48
(dp49
bg11
(g13
(S'x1'
p50
tp51
Rp52
(dp53
g18
g1
(g19
g20
(dp54
g22
Nsg23
Nsg24
Nsg25
Nsg26
Nsg30
Nsg28
Nsg29
Nsg32
Nsg31
Nsg33
Nsg34
I01
sg27
Nsg35
Nsg36
Nsg37
Nsg38
Nsg39
Nsg40
Nstp55
Rp56
sbg45
tp57
Rp58
(dp59
bg11
(g13
(S'y0'
p60
tp61
Rp62
(dp63
g18
g1
(g19
g20
(dp64
g22
Nsg23
Nsg24
Nsg25
Nsg26
Nsg27
Nsg28
Nsg29
Nsg30
Nsg31
Nsg32
Nsg33
Nsg34
I01
sg35
Nsg36
Nsg37
Nsg38
Nsg39
Nsg40
Nstp65
Rp66
sbg45
tp67
Rp68
(dp69
bg11
(g13
(S'y1'
p70
tp71
Rp72
(dp73
g18
g1
(g19
g20
(dp74
g22
Nsg23
Nsg24
Nsg25
Nsg26
Nsg30
Nsg28
Nsg29
Nsg32
Nsg31
Nsg33
Nsg34
I01
sg27
Nsg35
Nsg36
Nsg37
Nsg38
Nsg39
Nsg40
Nstp75
Rp76
sbg45
tp77
Rp78
(dp79
bg10
(g43
(I-4
tp80
Rp81
(dp82
bg16
g11
(g52
g43
(I3
tp83
Rp84
(dp85
btp86
Rp87
(dp88
btp89
Rp90
(dp91
bg10
(g81
g52
g11
(g16
g84
tp92
Rp93
(dp94
btp95
Rp96
(dp97
bg10
(g81
g62
g11
(g72
g84
tp98
Rp99
(dp100
btp101
Rp102
(dp103
bg10
(g81
g72
g11
(g62
g84
tp104
Rp105
(dp106
btp107
Rp108
(dp109
bg10
(g43
(I2
tp110
Rp111
(dp112
bg11
(g16
g111
tp113
Rp114
(dp115
bg11
(g62
g111
tp116
Rp117
(dp118
btp119
Rp120
(dp121
bg10
(g111
g114
g11
(g72
g111
tp122
Rp123
(dp124
btp125
Rp126
(dp127
bg10
(g111
g11
(g52
g111
tp128
Rp129
(dp130
bg117
tp131
Rp132
(dp133
bg10
(g111
g129
g123
tp134
Rp135
(dp136
bg10
(g43
(I6
tp137
Rp138
(dp139
bg114
g129
tp140
Rp141
(dp142
bg10
(g138
g117
g123
tp143
Rp144
(dp145
bg10
(g81
g16
g52
g117
tp146
Rp147
(dp148
bg10
(g81
g16
g52
g123
tp149
Rp150
(dp151
bg10
(g81
g62
g72
g114
tp152
Rp153
(dp154
bg10
(g81
g62
g72
g129
tp155
Rp156
(dp157
bg10
(g43
(I8
tp158
Rp159
(dp160
bg16
g52
g62
g72
tp161
Rp162
(dp163
btp164
Rp165
(dp166
bcsympy.core.numbers
NegativeOne
p167
(tRp168
(dp169
btp170
Rp171
(dp172
bg12
(g10
(g114
g11
(g12
(g11
(g16
g111
tp173
Rp174
(dp175
bg11
(g52
g111
tp176
Rp177
(dp178
bg11
(g62
g111
tp179
Rp180
(dp181
bg11
(g72
g111
tp182
Rp183
(dp184
bg10
(g43
(I-2
tp185
Rp186
(dp187
bg16
g52
tp188
Rp189
(dp190
bg10
(g186
g62
g72
tp191
Rp192
(dp193
btp194
Rp195
(dp196
bcsympy.core.numbers
Half
p197
(tRp198
(dp199
btp200
Rp201
(dp202
btp203
Rp204
(dp205
bg10
(g129
g201
tp206
Rp207
(dp208
bg10
(g186
g16
g52
g201
tp209
Rp210
(dp211
btp212
Rp213
(dp214
btp215
Rp216
(dp217
bag10
(g171
g12
(g10
(g16
g62
g201
tp218
Rp219
(dp220
bg10
(g52
g72
g201
tp221
Rp222
(dp223
bg10
(g168
g16
g72
g201
tp224
Rp225
(dp226
bg10
(g168
g52
g62
g201
tp227
Rp228
(dp229
btp230
Rp231
(dp232
btp233
Rp234
(dp235
bag10
(g171
g12
(g10
(g168
g114
g201
tp236
Rp237
(dp238
bg10
(g168
g129
g201
tp239
Rp240
(dp241
bg10
(g111
g16
g52
g201
tp242
Rp243
(dp244
btp245
Rp246
(dp247
btp248
Rp249
(dp250
bag10
(g171
g12
(g10
(g16
g72
g201
tp251
Rp252
(dp253
bg10
(g52
g62
g201
tp254
Rp255
(dp256
bg10
(g168
g16
g62
g201
tp257
Rp258
(dp259
bg10
(g168
g52
g72
g201
tp260
Rp261
(dp262
btp263
Rp264
(dp265
btp266
Rp267
(dp268
bag234
ag10
(g171
g12
(g10
(g117
g201
tp269
Rp270
(dp271
bg10
(g123
g201
tp272
Rp273
(dp274
bg10
(g186
g62
g72
g201
tp275
Rp276
(dp277
btp278
Rp279
(dp280
btp281
Rp282
(dp283
bag267
ag10
(g171
g12
(g10
(g168
g117
g201
tp284
Rp285
(dp286
bg10
(g168
g123
g201
tp287
Rp288
(dp289
bg10
(g111
g62
g72
g201
tp290
Rp291
(dp292
btp293
Rp294
(dp295
btp296
Rp297
(dp298
bag249
ag267
ag216
ag234
ag267
ag297
ag234
ag282
asS'cols'
p299
I4
sba(i__main__
Fegeo
p300
(dp301
S'dofnumber'
p302
I2
sS'shapefunlist'
p303
(lp304
(((lp305
I0
acfemaths.funreq
Doftype
p306
(I1
tp307
Rp308
tp309
g12
(csympy.core.numbers
One
p310
(tRp311
(dp312
bg10
(g168
g13
(S's'
p313
tp314
Rp315
(dp316
g18
g1
(g19
g20
(dp317
g34
I01
sg24
Nsg25
Nsg35
Nsg36
Nsg37
Nsg26
Nsg27
Nsg38
Nsg39
Nsg28
Nsg30
Nsg40
Nsg23
Nstp318
Rp319
sbtp320
Rp321
(dp322
btp323
Rp324
(dp325
btp326
a(((lp327
I1
ag308
tp328
g315
tp329
asS'coordinatesystem'
p330
c__main__
Coordinatesystem
p331
(I1
tp332
Rp333
sS'coord'
p334
g1
(g2
g3
Ntp335
Rp336
(dp337
g7
I2
sg8
(lp338
g16
ag52
ag62
ag72
asg299
I2
sbsS'mesh'
p339
(lp340
(ifemaths.femesh
Edge
p341
(dp342
S'index'
p343
(lp344
I1
asS'vertice2'
p345
(ifemaths.femesh
Vertice
p346
(dp347
S'var'
p348
(lp349
sg343
g327
sS'funreq'
p350
(lp351
g308
asS'shapefunction'
p352
(lp353
g315
asS'coordinates'
p354
(lp355
I1
asbsS'interiorvertices'
p356
(lp357
sS'vertice1'
p358
(ifemaths.femesh
Vertice
p359
(dp360
g348
(lp361
sg343
g305
sg350
(lp362
g308
asg352
(lp363
g324
asg354
(lp364
I0
asbsbasS'coordvar'
p365
(lp366
S'x'
p367
aS'y'
p368
aS'z'
p369
asS'dimension'
p370
I2
sba.