(lp0
(lp1
(i__main__
Vertice
p2
(dp3
S'index'
p4
(lp5
I0
aI31815284
asS'coordinates'
p6
(lp7
F-74.439766000000006
aF2.401999
aF0.0
asba(i__main__
Vertice
p8
(dp9
g4
(lp10
I1
aI31814964
asg6
(lp11
F-48.828505999999997
aF27.118477321880999
aF0.0
asba(i__main__
Vertice
p12
(dp13
g4
(lp14
I2
aI31814924
asg6
(lp15
F-22.116738999999999
aF2.401999
aF0.0
asba(i__main__
Vertice
p16
(dp17
g4
(lp18
I3
aI31814884
asg6
(lp19
F7.334435
aF27.118477321880999
aF0.0
asba(i__main__
Vertice
p20
(dp21
g4
(lp22
I4
aI31815164
asg6
(lp23
F28.992025000000002
aF2.401999
aF0.0
asbaa(lp24
(i__main__
Edge
p25
(dp26
g4
(lp27
I0
asS'vertice2'
p28
(i__main__
Vertice
p29
(dp30
g4
I31816364
sg6
(lp31
F-48.828505999999997
aF27.118477321880999
aF0.0
asbsS'interiorvertices'
p32
(lp33
sS'vertice1'
p34
(i__main__
Vertice
p35
(dp36
g4
I31816084
sg6
(lp37
F-74.439766000000006
aF2.401999
aF0.0
asbsba(i__main__
Edge
p38
(dp39
g4
(lp40
I1
asg28
(i__main__
Vertice
p41
(dp42
g4
I30731260
sg6
(lp43
F-22.116738999999999
aF2.401999
aF0.0
asbsg32
(lp44
sg34
(i__main__
Vertice
p45
(dp46
g4
I30730100
sg6
(lp47
F-48.828505999999997
aF27.118477321880999
aF0.0
asbsba(i__main__
Edge
p48
(dp49
g4
(lp50
I2
asg28
(i__main__
Vertice
p51
(dp52
g4
I30731060
sg6
(lp53
F-48.828505999999997
aF27.118477321880999
aF0.0
asbsg32
(lp54
sg34
(i__main__
Vertice
p55
(dp56
g4
I30730980
sg6
(lp57
F7.334435
aF27.118477321880999
aF0.0
asbsba(i__main__
Edge
p58
(dp59
g4
(lp60
I3
asg28
(i__main__
Vertice
p61
(dp62
g4
I30730540
sg6
(lp63
F7.334435
aF27.118477321880999
aF0.0
asbsg32
(lp64
sg34
(i__main__
Vertice
p65
(dp66
g4
I30730420
sg6
(lp67
F-22.116738999999999
aF2.401999
aF0.0
asbsba(i__main__
Edge
p68
(dp69
g4
(lp70
I4
asg28
(i__main__
Vertice
p71
(dp72
g4
I30971132
sg6
(lp73
F28.992025000000002
aF2.401999
aF0.0
asbsg32
(lp74
sg34
(i__main__
Vertice
p75
(dp76
g4
I30730380
sg6
(lp77
F7.334435
aF27.118477321880999
aF0.0
asbsba(i__main__
Edge
p78
(dp79
g4
(lp80
I5
asg28
(i__main__
Vertice
p81
(dp82
g4
I31834684
sg6
(lp83
F28.992025000000002
aF2.401999
aF0.0
asbsg32
(lp84
sg34
(i__main__
Vertice
p85
(dp86
g4
I31769452
sg6
(lp87
F-22.116738999999999
aF2.401999
aF0.0
asbsba(i__main__
Edge
p88
(dp89
g4
(lp90
I6
asg28
(i__main__
Vertice
p91
(dp92
g4
I31835164
sg6
(lp93
F-22.116738999999999
aF2.401999
aF0.0
asbsg32
(lp94
sg34
(i__main__
Vertice
p95
(dp96
g4
I31834884
sg6
(lp97
F-74.439766000000006
aF2.401999
aF0.0
asbsbaa.